
obc.elf:     file format elf32-avr

Sections:
Idx Name          Size      VMA       LMA       File off  Algn
  0 .data         00000000  00800200  00800200  00000a40  2**0
                  CONTENTS, ALLOC, LOAD, DATA
  1 .text         000009cc  00000000  00000000  00000074  2**1
                  CONTENTS, ALLOC, LOAD, READONLY, CODE
  2 .bss          0000006c  00800200  00800200  00000a40  2**0
                  ALLOC
  3 .comment      00000030  00000000  00000000  00000a40  2**0
                  CONTENTS, READONLY
  4 .note.gnu.avr.deviceinfo 00000040  00000000  00000000  00000a70  2**2
                  CONTENTS, READONLY
  5 .debug_aranges 00000410  00000000  00000000  00000ab0  2**0
                  CONTENTS, READONLY, DEBUGGING
  6 .debug_info   00004c52  00000000  00000000  00000ec0  2**0
                  CONTENTS, READONLY, DEBUGGING
  7 .debug_abbrev 000015a3  00000000  00000000  00005b12  2**0
                  CONTENTS, READONLY, DEBUGGING
  8 .debug_line   00002b8a  00000000  00000000  000070b5  2**0
                  CONTENTS, READONLY, DEBUGGING
  9 .debug_frame  00000e20  00000000  00000000  00009c40  2**2
                  CONTENTS, READONLY, DEBUGGING
 10 .debug_str    000017c4  00000000  00000000  0000aa60  2**0
                  CONTENTS, READONLY, DEBUGGING
 11 .debug_loc    00004ade  00000000  00000000  0000c224  2**0
                  CONTENTS, READONLY, DEBUGGING
 12 .debug_ranges 00000428  00000000  00000000  00010d02  2**0
                  CONTENTS, READONLY, DEBUGGING

Disassembly of section .text:

00000000 <__vectors>:
   0:	71 c0       	rjmp	.+226    	; 0xe4 <__ctors_end>
   2:	00 00       	nop
   4:	8e c0       	rjmp	.+284    	; 0x122 <__bad_interrupt>
   6:	00 00       	nop
   8:	8c c0       	rjmp	.+280    	; 0x122 <__bad_interrupt>
   a:	00 00       	nop
   c:	8a c0       	rjmp	.+276    	; 0x122 <__bad_interrupt>
   e:	00 00       	nop
  10:	88 c0       	rjmp	.+272    	; 0x122 <__bad_interrupt>
  12:	00 00       	nop
  14:	86 c0       	rjmp	.+268    	; 0x122 <__bad_interrupt>
  16:	00 00       	nop
  18:	84 c0       	rjmp	.+264    	; 0x122 <__bad_interrupt>
  1a:	00 00       	nop
  1c:	82 c0       	rjmp	.+260    	; 0x122 <__bad_interrupt>
  1e:	00 00       	nop
  20:	80 c0       	rjmp	.+256    	; 0x122 <__bad_interrupt>
  22:	00 00       	nop
  24:	7e c0       	rjmp	.+252    	; 0x122 <__bad_interrupt>
  26:	00 00       	nop
  28:	7c c0       	rjmp	.+248    	; 0x122 <__bad_interrupt>
  2a:	00 00       	nop
  2c:	7a c0       	rjmp	.+244    	; 0x122 <__bad_interrupt>
  2e:	00 00       	nop
  30:	78 c0       	rjmp	.+240    	; 0x122 <__bad_interrupt>
  32:	00 00       	nop
  34:	76 c0       	rjmp	.+236    	; 0x122 <__bad_interrupt>
  36:	00 00       	nop
  38:	74 c0       	rjmp	.+232    	; 0x122 <__bad_interrupt>
  3a:	00 00       	nop
  3c:	72 c0       	rjmp	.+228    	; 0x122 <__bad_interrupt>
  3e:	00 00       	nop
  40:	70 c0       	rjmp	.+224    	; 0x122 <__bad_interrupt>
  42:	00 00       	nop
  44:	78 c1       	rjmp	.+752    	; 0x336 <__vector_17>
  46:	00 00       	nop
  48:	6c c0       	rjmp	.+216    	; 0x122 <__bad_interrupt>
  4a:	00 00       	nop
  4c:	6a c0       	rjmp	.+212    	; 0x122 <__bad_interrupt>
  4e:	00 00       	nop
  50:	68 c0       	rjmp	.+208    	; 0x122 <__bad_interrupt>
  52:	00 00       	nop
  54:	66 c0       	rjmp	.+204    	; 0x122 <__bad_interrupt>
  56:	00 00       	nop
  58:	64 c0       	rjmp	.+200    	; 0x122 <__bad_interrupt>
  5a:	00 00       	nop
  5c:	62 c0       	rjmp	.+196    	; 0x122 <__bad_interrupt>
  5e:	00 00       	nop
  60:	60 c0       	rjmp	.+192    	; 0x122 <__bad_interrupt>
  62:	00 00       	nop
  64:	5e c0       	rjmp	.+188    	; 0x122 <__bad_interrupt>
  66:	00 00       	nop
  68:	5c c0       	rjmp	.+184    	; 0x122 <__bad_interrupt>
  6a:	00 00       	nop
  6c:	5a c0       	rjmp	.+180    	; 0x122 <__bad_interrupt>
  6e:	00 00       	nop
  70:	58 c0       	rjmp	.+176    	; 0x122 <__bad_interrupt>
  72:	00 00       	nop
  74:	56 c0       	rjmp	.+172    	; 0x122 <__bad_interrupt>
  76:	00 00       	nop
  78:	54 c0       	rjmp	.+168    	; 0x122 <__bad_interrupt>
  7a:	00 00       	nop
  7c:	52 c0       	rjmp	.+164    	; 0x122 <__bad_interrupt>
  7e:	00 00       	nop
  80:	50 c0       	rjmp	.+160    	; 0x122 <__bad_interrupt>
  82:	00 00       	nop
  84:	4e c0       	rjmp	.+156    	; 0x122 <__bad_interrupt>
  86:	00 00       	nop
  88:	4c c0       	rjmp	.+152    	; 0x122 <__bad_interrupt>
  8a:	00 00       	nop
  8c:	4a c0       	rjmp	.+148    	; 0x122 <__bad_interrupt>
  8e:	00 00       	nop
  90:	1a c4       	rjmp	.+2100   	; 0x8c6 <__vector_36>
  92:	00 00       	nop
  94:	46 c0       	rjmp	.+140    	; 0x122 <__bad_interrupt>
  96:	00 00       	nop
  98:	44 c0       	rjmp	.+136    	; 0x122 <__bad_interrupt>
  9a:	00 00       	nop
  9c:	42 c0       	rjmp	.+132    	; 0x122 <__bad_interrupt>
  9e:	00 00       	nop
  a0:	40 c0       	rjmp	.+128    	; 0x122 <__bad_interrupt>
  a2:	00 00       	nop
  a4:	3e c0       	rjmp	.+124    	; 0x122 <__bad_interrupt>
  a6:	00 00       	nop
  a8:	3c c0       	rjmp	.+120    	; 0x122 <__bad_interrupt>
  aa:	00 00       	nop
  ac:	3a c0       	rjmp	.+116    	; 0x122 <__bad_interrupt>
  ae:	00 00       	nop
  b0:	38 c0       	rjmp	.+112    	; 0x122 <__bad_interrupt>
  b2:	00 00       	nop
  b4:	36 c0       	rjmp	.+108    	; 0x122 <__bad_interrupt>
  b6:	00 00       	nop
  b8:	34 c0       	rjmp	.+104    	; 0x122 <__bad_interrupt>
  ba:	00 00       	nop
  bc:	32 c0       	rjmp	.+100    	; 0x122 <__bad_interrupt>
  be:	00 00       	nop
  c0:	30 c0       	rjmp	.+96     	; 0x122 <__bad_interrupt>
  c2:	00 00       	nop
  c4:	2e c0       	rjmp	.+92     	; 0x122 <__bad_interrupt>
  c6:	00 00       	nop
  c8:	2c c0       	rjmp	.+88     	; 0x122 <__bad_interrupt>
  ca:	00 00       	nop
  cc:	3f c4       	rjmp	.+2174   	; 0x94c <__vector_51>
  ce:	00 00       	nop
  d0:	28 c0       	rjmp	.+80     	; 0x122 <__bad_interrupt>
  d2:	00 00       	nop
  d4:	26 c0       	rjmp	.+76     	; 0x122 <__bad_interrupt>
  d6:	00 00       	nop
  d8:	24 c0       	rjmp	.+72     	; 0x122 <__bad_interrupt>
  da:	00 00       	nop
  dc:	22 c0       	rjmp	.+68     	; 0x122 <__bad_interrupt>
  de:	00 00       	nop
  e0:	20 c0       	rjmp	.+64     	; 0x122 <__bad_interrupt>
	...

000000e4 <__ctors_end>:
  e4:	11 24       	eor	r1, r1
  e6:	1f be       	out	0x3f, r1	; 63
  e8:	cf ef       	ldi	r28, 0xFF	; 255
  ea:	d1 e2       	ldi	r29, 0x21	; 33
  ec:	de bf       	out	0x3e, r29	; 62
  ee:	cd bf       	out	0x3d, r28	; 61
  f0:	00 e0       	ldi	r16, 0x00	; 0
  f2:	0c bf       	out	0x3c, r16	; 60

000000f4 <__do_copy_data>:
  f4:	12 e0       	ldi	r17, 0x02	; 2
  f6:	a0 e0       	ldi	r26, 0x00	; 0
  f8:	b2 e0       	ldi	r27, 0x02	; 2
  fa:	ec ec       	ldi	r30, 0xCC	; 204
  fc:	f9 e0       	ldi	r31, 0x09	; 9
  fe:	00 e0       	ldi	r16, 0x00	; 0
 100:	0b bf       	out	0x3b, r16	; 59
 102:	02 c0       	rjmp	.+4      	; 0x108 <__do_copy_data+0x14>
 104:	07 90       	elpm	r0, Z+
 106:	0d 92       	st	X+, r0
 108:	a0 30       	cpi	r26, 0x00	; 0
 10a:	b1 07       	cpc	r27, r17
 10c:	d9 f7       	brne	.-10     	; 0x104 <__do_copy_data+0x10>

0000010e <__do_clear_bss>:
 10e:	22 e0       	ldi	r18, 0x02	; 2
 110:	a0 e0       	ldi	r26, 0x00	; 0
 112:	b2 e0       	ldi	r27, 0x02	; 2
 114:	01 c0       	rjmp	.+2      	; 0x118 <.do_clear_bss_start>

00000116 <.do_clear_bss_loop>:
 116:	1d 92       	st	X+, r1

00000118 <.do_clear_bss_start>:
 118:	ac 36       	cpi	r26, 0x6C	; 108
 11a:	b2 07       	cpc	r27, r18
 11c:	e1 f7       	brne	.-8      	; 0x116 <.do_clear_bss_loop>
 11e:	5d d3       	rcall	.+1722   	; 0x7da <main>
 120:	53 c4       	rjmp	.+2214   	; 0x9c8 <_exit>

00000122 <__bad_interrupt>:
 122:	6e cf       	rjmp	.-292    	; 0x0 <__vectors>

00000124 <vListInsertEnd>:
	/* Remember which list the item is in.  This allows fast removal of the
	item later. */
	pxNewListItem->pvContainer = ( void * ) pxList;

	( pxList->uxNumberOfItems )++;
}
 124:	cf 93       	push	r28
 126:	df 93       	push	r29
 128:	9c 01       	movw	r18, r24
 12a:	fb 01       	movw	r30, r22
 12c:	dc 01       	movw	r26, r24
 12e:	11 96       	adiw	r26, 0x01	; 1
 130:	cd 91       	ld	r28, X+
 132:	dc 91       	ld	r29, X
 134:	12 97       	sbiw	r26, 0x02	; 2
 136:	d5 83       	std	Z+5, r29	; 0x05
 138:	c4 83       	std	Z+4, r28	; 0x04
 13a:	8e 81       	ldd	r24, Y+6	; 0x06
 13c:	9f 81       	ldd	r25, Y+7	; 0x07
 13e:	97 83       	std	Z+7, r25	; 0x07
 140:	86 83       	std	Z+6, r24	; 0x06
 142:	8e 81       	ldd	r24, Y+6	; 0x06
 144:	9f 81       	ldd	r25, Y+7	; 0x07
 146:	dc 01       	movw	r26, r24
 148:	15 96       	adiw	r26, 0x05	; 5
 14a:	7c 93       	st	X, r23
 14c:	6e 93       	st	-X, r22
 14e:	14 97       	sbiw	r26, 0x04	; 4
 150:	7f 83       	std	Y+7, r23	; 0x07
 152:	6e 83       	std	Y+6, r22	; 0x06
 154:	33 87       	std	Z+11, r19	; 0x0b
 156:	22 87       	std	Z+10, r18	; 0x0a
 158:	f9 01       	movw	r30, r18
 15a:	80 81       	ld	r24, Z
 15c:	8f 5f       	subi	r24, 0xFF	; 255
 15e:	80 83       	st	Z, r24
 160:	df 91       	pop	r29
 162:	cf 91       	pop	r28
 164:	08 95       	ret

00000166 <uxListRemove>:
/*-----------------------------------------------------------*/

UBaseType_t uxListRemove( ListItem_t * const pxItemToRemove )
{
 166:	cf 93       	push	r28
 168:	df 93       	push	r29
 16a:	fc 01       	movw	r30, r24
/* The list item knows which list it is in.  Obtain the list from the list
item. */
List_t * const pxList = ( List_t * ) pxItemToRemove->pvContainer;
 16c:	a2 85       	ldd	r26, Z+10	; 0x0a
 16e:	b3 85       	ldd	r27, Z+11	; 0x0b

	pxItemToRemove->pxNext->pxPrevious = pxItemToRemove->pxPrevious;
 170:	c4 81       	ldd	r28, Z+4	; 0x04
 172:	d5 81       	ldd	r29, Z+5	; 0x05
 174:	86 81       	ldd	r24, Z+6	; 0x06
 176:	97 81       	ldd	r25, Z+7	; 0x07
 178:	9f 83       	std	Y+7, r25	; 0x07
 17a:	8e 83       	std	Y+6, r24	; 0x06
	pxItemToRemove->pxPrevious->pxNext = pxItemToRemove->pxNext;
 17c:	c6 81       	ldd	r28, Z+6	; 0x06
 17e:	d7 81       	ldd	r29, Z+7	; 0x07
 180:	84 81       	ldd	r24, Z+4	; 0x04
 182:	95 81       	ldd	r25, Z+5	; 0x05
 184:	9d 83       	std	Y+5, r25	; 0x05
 186:	8c 83       	std	Y+4, r24	; 0x04

	/* Only used during decision coverage testing. */
	mtCOVERAGE_TEST_DELAY();

	/* Make sure the index is left pointing to a valid item. */
	if( pxList->pxIndex == pxItemToRemove )
 188:	11 96       	adiw	r26, 0x01	; 1
 18a:	8d 91       	ld	r24, X+
 18c:	9c 91       	ld	r25, X
 18e:	12 97       	sbiw	r26, 0x02	; 2
 190:	e8 17       	cp	r30, r24
 192:	f9 07       	cpc	r31, r25
 194:	31 f4       	brne	.+12     	; 0x1a2 <uxListRemove+0x3c>
	{
		pxList->pxIndex = pxItemToRemove->pxPrevious;
 196:	86 81       	ldd	r24, Z+6	; 0x06
 198:	97 81       	ldd	r25, Z+7	; 0x07
 19a:	12 96       	adiw	r26, 0x02	; 2
 19c:	9c 93       	st	X, r25
 19e:	8e 93       	st	-X, r24
 1a0:	11 97       	sbiw	r26, 0x01	; 1
	else
	{
		mtCOVERAGE_TEST_MARKER();
	}

	pxItemToRemove->pvContainer = NULL;
 1a2:	13 86       	std	Z+11, r1	; 0x0b
 1a4:	12 86       	std	Z+10, r1	; 0x0a
	( pxList->uxNumberOfItems )--;
 1a6:	8c 91       	ld	r24, X
 1a8:	81 50       	subi	r24, 0x01	; 1
 1aa:	8c 93       	st	X, r24

	return pxList->uxNumberOfItems;
}
 1ac:	df 91       	pop	r29
 1ae:	cf 91       	pop	r28
 1b0:	08 95       	ret

000001b2 <vPortYield>:
 * can use a naked attribute.
 */
void vPortYield( void ) __attribute__ ( ( naked ) );
void vPortYield( void )
{
	portSAVE_CONTEXT();
 1b2:	0f 92       	push	r0
 1b4:	0f b6       	in	r0, 0x3f	; 63
 1b6:	f8 94       	cli
 1b8:	0f 92       	push	r0
 1ba:	0b b6       	in	r0, 0x3b	; 59
 1bc:	0f 92       	push	r0
 1be:	0c b6       	in	r0, 0x3c	; 60
 1c0:	0f 92       	push	r0
 1c2:	1f 92       	push	r1
 1c4:	11 24       	eor	r1, r1
 1c6:	2f 92       	push	r2
 1c8:	3f 92       	push	r3
 1ca:	4f 92       	push	r4
 1cc:	5f 92       	push	r5
 1ce:	6f 92       	push	r6
 1d0:	7f 92       	push	r7
 1d2:	8f 92       	push	r8
 1d4:	9f 92       	push	r9
 1d6:	af 92       	push	r10
 1d8:	bf 92       	push	r11
 1da:	cf 92       	push	r12
 1dc:	df 92       	push	r13
 1de:	ef 92       	push	r14
 1e0:	ff 92       	push	r15
 1e2:	0f 93       	push	r16
 1e4:	1f 93       	push	r17
 1e6:	2f 93       	push	r18
 1e8:	3f 93       	push	r19
 1ea:	4f 93       	push	r20
 1ec:	5f 93       	push	r21
 1ee:	6f 93       	push	r22
 1f0:	7f 93       	push	r23
 1f2:	8f 93       	push	r24
 1f4:	9f 93       	push	r25
 1f6:	af 93       	push	r26
 1f8:	bf 93       	push	r27
 1fa:	cf 93       	push	r28
 1fc:	df 93       	push	r29
 1fe:	ef 93       	push	r30
 200:	ff 93       	push	r31
 202:	a0 91 53 02 	lds	r26, 0x0253	; 0x800253 <pxCurrentTCB>
 206:	b0 91 54 02 	lds	r27, 0x0254	; 0x800254 <pxCurrentTCB+0x1>
 20a:	0d b6       	in	r0, 0x3d	; 61
 20c:	0d 92       	st	X+, r0
 20e:	0e b6       	in	r0, 0x3e	; 62
 210:	0d 92       	st	X+, r0
	vTaskSwitchContext();
 212:	1d d2       	rcall	.+1082   	; 0x64e <vTaskSwitchContext>
	portRESTORE_CONTEXT();
 214:	a0 91 53 02 	lds	r26, 0x0253	; 0x800253 <pxCurrentTCB>
 218:	b0 91 54 02 	lds	r27, 0x0254	; 0x800254 <pxCurrentTCB+0x1>
 21c:	cd 91       	ld	r28, X+
 21e:	cd bf       	out	0x3d, r28	; 61
 220:	dd 91       	ld	r29, X+
 222:	de bf       	out	0x3e, r29	; 62
 224:	ff 91       	pop	r31
 226:	ef 91       	pop	r30
 228:	df 91       	pop	r29
 22a:	cf 91       	pop	r28
 22c:	bf 91       	pop	r27
 22e:	af 91       	pop	r26
 230:	9f 91       	pop	r25
 232:	8f 91       	pop	r24
 234:	7f 91       	pop	r23
 236:	6f 91       	pop	r22
 238:	5f 91       	pop	r21
 23a:	4f 91       	pop	r20
 23c:	3f 91       	pop	r19
 23e:	2f 91       	pop	r18
 240:	1f 91       	pop	r17
 242:	0f 91       	pop	r16
 244:	ff 90       	pop	r15
 246:	ef 90       	pop	r14
 248:	df 90       	pop	r13
 24a:	cf 90       	pop	r12
 24c:	bf 90       	pop	r11
 24e:	af 90       	pop	r10
 250:	9f 90       	pop	r9
 252:	8f 90       	pop	r8
 254:	7f 90       	pop	r7
 256:	6f 90       	pop	r6
 258:	5f 90       	pop	r5
 25a:	4f 90       	pop	r4
 25c:	3f 90       	pop	r3
 25e:	2f 90       	pop	r2
 260:	1f 90       	pop	r1
 262:	0f 90       	pop	r0
 264:	0c be       	out	0x3c, r0	; 60
 266:	0f 90       	pop	r0
 268:	0b be       	out	0x3b, r0	; 59
 26a:	0f 90       	pop	r0
 26c:	0f be       	out	0x3f, r0	; 63
 26e:	0f 90       	pop	r0

	asm volatile ( "ret" );
 270:	08 95       	ret

00000272 <vPortYieldFromTick>:
 * call comes from the tick ISR.
 */
void vPortYieldFromTick( void ) __attribute__ ( ( naked ) );
void vPortYieldFromTick( void )
{
	portSAVE_CONTEXT();
 272:	0f 92       	push	r0
 274:	0f b6       	in	r0, 0x3f	; 63
 276:	f8 94       	cli
 278:	0f 92       	push	r0
 27a:	0b b6       	in	r0, 0x3b	; 59
 27c:	0f 92       	push	r0
 27e:	0c b6       	in	r0, 0x3c	; 60
 280:	0f 92       	push	r0
 282:	1f 92       	push	r1
 284:	11 24       	eor	r1, r1
 286:	2f 92       	push	r2
 288:	3f 92       	push	r3
 28a:	4f 92       	push	r4
 28c:	5f 92       	push	r5
 28e:	6f 92       	push	r6
 290:	7f 92       	push	r7
 292:	8f 92       	push	r8
 294:	9f 92       	push	r9
 296:	af 92       	push	r10
 298:	bf 92       	push	r11
 29a:	cf 92       	push	r12
 29c:	df 92       	push	r13
 29e:	ef 92       	push	r14
 2a0:	ff 92       	push	r15
 2a2:	0f 93       	push	r16
 2a4:	1f 93       	push	r17
 2a6:	2f 93       	push	r18
 2a8:	3f 93       	push	r19
 2aa:	4f 93       	push	r20
 2ac:	5f 93       	push	r21
 2ae:	6f 93       	push	r22
 2b0:	7f 93       	push	r23
 2b2:	8f 93       	push	r24
 2b4:	9f 93       	push	r25
 2b6:	af 93       	push	r26
 2b8:	bf 93       	push	r27
 2ba:	cf 93       	push	r28
 2bc:	df 93       	push	r29
 2be:	ef 93       	push	r30
 2c0:	ff 93       	push	r31
 2c2:	a0 91 53 02 	lds	r26, 0x0253	; 0x800253 <pxCurrentTCB>
 2c6:	b0 91 54 02 	lds	r27, 0x0254	; 0x800254 <pxCurrentTCB+0x1>
 2ca:	0d b6       	in	r0, 0x3d	; 61
 2cc:	0d 92       	st	X+, r0
 2ce:	0e b6       	in	r0, 0x3e	; 62
 2d0:	0d 92       	st	X+, r0
	if( xTaskIncrementTick() != pdFALSE )
 2d2:	f1 d0       	rcall	.+482    	; 0x4b6 <xTaskIncrementTick>
 2d4:	81 11       	cpse	r24, r1
	{
		vTaskSwitchContext();
 2d6:	bb d1       	rcall	.+886    	; 0x64e <vTaskSwitchContext>
 2d8:	a0 91 53 02 	lds	r26, 0x0253	; 0x800253 <pxCurrentTCB>
	}
	portRESTORE_CONTEXT();
 2dc:	b0 91 54 02 	lds	r27, 0x0254	; 0x800254 <pxCurrentTCB+0x1>
 2e0:	cd 91       	ld	r28, X+
 2e2:	cd bf       	out	0x3d, r28	; 61
 2e4:	dd 91       	ld	r29, X+
 2e6:	de bf       	out	0x3e, r29	; 62
 2e8:	ff 91       	pop	r31
 2ea:	ef 91       	pop	r30
 2ec:	df 91       	pop	r29
 2ee:	cf 91       	pop	r28
 2f0:	bf 91       	pop	r27
 2f2:	af 91       	pop	r26
 2f4:	9f 91       	pop	r25
 2f6:	8f 91       	pop	r24
 2f8:	7f 91       	pop	r23
 2fa:	6f 91       	pop	r22
 2fc:	5f 91       	pop	r21
 2fe:	4f 91       	pop	r20
 300:	3f 91       	pop	r19
 302:	2f 91       	pop	r18
 304:	1f 91       	pop	r17
 306:	0f 91       	pop	r16
 308:	ff 90       	pop	r15
 30a:	ef 90       	pop	r14
 30c:	df 90       	pop	r13
 30e:	cf 90       	pop	r12
 310:	bf 90       	pop	r11
 312:	af 90       	pop	r10
 314:	9f 90       	pop	r9
 316:	8f 90       	pop	r8
 318:	7f 90       	pop	r7
 31a:	6f 90       	pop	r6
 31c:	5f 90       	pop	r5
 31e:	4f 90       	pop	r4
 320:	3f 90       	pop	r3
 322:	2f 90       	pop	r2
 324:	1f 90       	pop	r1
 326:	0f 90       	pop	r0
 328:	0c be       	out	0x3c, r0	; 60
 32a:	0f 90       	pop	r0
 32c:	0b be       	out	0x3b, r0	; 59
 32e:	0f 90       	pop	r0
 330:	0f be       	out	0x3f, r0	; 63
 332:	0f 90       	pop	r0
 334:	08 95       	ret

00000336 <__vector_17>:

	asm volatile ( "ret" );
 336:	9d df       	rcall	.-198    	; 0x272 <vPortYieldFromTick>
	 */
	ISR(TIMER1_COMPA_vect) __attribute__ ( ( signal, naked ) );
	ISR(TIMER1_COMPA_vect)
	{
		vPortYieldFromTick();
		asm volatile ( "reti" );
 338:	18 95       	reti

0000033a <prvCopyDataToQueue>:

			traceGIVE_MUTEX_RECURSIVE_FAILED( pxMutex );
		}

		return xReturn;
	}
 33a:	0f 93       	push	r16
 33c:	1f 93       	push	r17
 33e:	cf 93       	push	r28
 340:	df 93       	push	r29
 342:	ec 01       	movw	r28, r24
 344:	04 2f       	mov	r16, r20
 346:	1e 8d       	ldd	r17, Y+30	; 0x1e
 348:	48 a1       	ldd	r20, Y+32	; 0x20
 34a:	41 11       	cpse	r20, r1
 34c:	0b c0       	rjmp	.+22     	; 0x364 <prvCopyDataToQueue+0x2a>
 34e:	88 81       	ld	r24, Y
 350:	99 81       	ldd	r25, Y+1	; 0x01
 352:	89 2b       	or	r24, r25
 354:	09 f0       	breq	.+2      	; 0x358 <prvCopyDataToQueue+0x1e>
 356:	3f c0       	rjmp	.+126    	; 0x3d6 <prvCopyDataToQueue+0x9c>
 358:	8a 81       	ldd	r24, Y+2	; 0x02
 35a:	9b 81       	ldd	r25, Y+3	; 0x03
 35c:	00 d2       	rcall	.+1024   	; 0x75e <xTaskPriorityDisinherit>
 35e:	1b 82       	std	Y+3, r1	; 0x03
 360:	1a 82       	std	Y+2, r1	; 0x02
 362:	40 c0       	rjmp	.+128    	; 0x3e4 <prvCopyDataToQueue+0xaa>
 364:	01 11       	cpse	r16, r1
 366:	16 c0       	rjmp	.+44     	; 0x394 <prvCopyDataToQueue+0x5a>
 368:	50 e0       	ldi	r21, 0x00	; 0
 36a:	8c 81       	ldd	r24, Y+4	; 0x04
 36c:	9d 81       	ldd	r25, Y+5	; 0x05
 36e:	23 d3       	rcall	.+1606   	; 0x9b6 <memcpy>
 370:	28 a1       	ldd	r18, Y+32	; 0x20
 372:	8c 81       	ldd	r24, Y+4	; 0x04
 374:	9d 81       	ldd	r25, Y+5	; 0x05
 376:	82 0f       	add	r24, r18
 378:	91 1d       	adc	r25, r1
 37a:	9d 83       	std	Y+5, r25	; 0x05
 37c:	8c 83       	std	Y+4, r24	; 0x04
 37e:	2a 81       	ldd	r18, Y+2	; 0x02
 380:	3b 81       	ldd	r19, Y+3	; 0x03
 382:	82 17       	cp	r24, r18
 384:	93 07       	cpc	r25, r19
 386:	48 f1       	brcs	.+82     	; 0x3da <prvCopyDataToQueue+0xa0>
 388:	88 81       	ld	r24, Y
 38a:	99 81       	ldd	r25, Y+1	; 0x01
 38c:	9d 83       	std	Y+5, r25	; 0x05
 38e:	8c 83       	std	Y+4, r24	; 0x04
 390:	80 e0       	ldi	r24, 0x00	; 0
 392:	28 c0       	rjmp	.+80     	; 0x3e4 <prvCopyDataToQueue+0xaa>
 394:	50 e0       	ldi	r21, 0x00	; 0
 396:	8e 81       	ldd	r24, Y+6	; 0x06
 398:	9f 81       	ldd	r25, Y+7	; 0x07
 39a:	0d d3       	rcall	.+1562   	; 0x9b6 <memcpy>
 39c:	88 a1       	ldd	r24, Y+32	; 0x20
 39e:	90 e0       	ldi	r25, 0x00	; 0
 3a0:	91 95       	neg	r25
 3a2:	81 95       	neg	r24
 3a4:	91 09       	sbc	r25, r1
 3a6:	2e 81       	ldd	r18, Y+6	; 0x06
 3a8:	3f 81       	ldd	r19, Y+7	; 0x07
 3aa:	28 0f       	add	r18, r24
 3ac:	39 1f       	adc	r19, r25
 3ae:	3f 83       	std	Y+7, r19	; 0x07
 3b0:	2e 83       	std	Y+6, r18	; 0x06
 3b2:	48 81       	ld	r20, Y
 3b4:	59 81       	ldd	r21, Y+1	; 0x01
 3b6:	24 17       	cp	r18, r20
 3b8:	35 07       	cpc	r19, r21
 3ba:	30 f4       	brcc	.+12     	; 0x3c8 <prvCopyDataToQueue+0x8e>
 3bc:	2a 81       	ldd	r18, Y+2	; 0x02
 3be:	3b 81       	ldd	r19, Y+3	; 0x03
 3c0:	82 0f       	add	r24, r18
 3c2:	93 1f       	adc	r25, r19
 3c4:	9f 83       	std	Y+7, r25	; 0x07
 3c6:	8e 83       	std	Y+6, r24	; 0x06
 3c8:	02 30       	cpi	r16, 0x02	; 2
 3ca:	49 f4       	brne	.+18     	; 0x3de <prvCopyDataToQueue+0xa4>
 3cc:	11 23       	and	r17, r17
 3ce:	49 f0       	breq	.+18     	; 0x3e2 <prvCopyDataToQueue+0xa8>
 3d0:	11 50       	subi	r17, 0x01	; 1
 3d2:	80 e0       	ldi	r24, 0x00	; 0
 3d4:	07 c0       	rjmp	.+14     	; 0x3e4 <prvCopyDataToQueue+0xaa>
 3d6:	80 e0       	ldi	r24, 0x00	; 0
 3d8:	05 c0       	rjmp	.+10     	; 0x3e4 <prvCopyDataToQueue+0xaa>
 3da:	80 e0       	ldi	r24, 0x00	; 0
 3dc:	03 c0       	rjmp	.+6      	; 0x3e4 <prvCopyDataToQueue+0xaa>
 3de:	80 e0       	ldi	r24, 0x00	; 0
 3e0:	01 c0       	rjmp	.+2      	; 0x3e4 <prvCopyDataToQueue+0xaa>
 3e2:	80 e0       	ldi	r24, 0x00	; 0
 3e4:	1f 5f       	subi	r17, 0xFF	; 255
 3e6:	1e 8f       	std	Y+30, r17	; 0x1e
 3e8:	df 91       	pop	r29
 3ea:	cf 91       	pop	r28
 3ec:	1f 91       	pop	r17
 3ee:	0f 91       	pop	r16
 3f0:	08 95       	ret

000003f2 <xQueueGenericSendFromISR>:
	}
}
/*-----------------------------------------------------------*/

BaseType_t xQueueGenericSendFromISR( QueueHandle_t xQueue, const void * const pvItemToQueue, BaseType_t * const pxHigherPriorityTaskWoken, const BaseType_t xCopyPosition )
{
 3f2:	ef 92       	push	r14
 3f4:	ff 92       	push	r15
 3f6:	0f 93       	push	r16
 3f8:	1f 93       	push	r17
 3fa:	cf 93       	push	r28
 3fc:	df 93       	push	r29
 3fe:	8a 01       	movw	r16, r20
	read, instead return a flag to say whether a context switch is required or
	not (i.e. has a task with a higher priority than us been woken by this
	post). */
	uxSavedInterruptStatus = portSET_INTERRUPT_MASK_FROM_ISR();
	{
		if( ( pxQueue->uxMessagesWaiting < pxQueue->uxLength ) || ( xCopyPosition == queueOVERWRITE ) )
 400:	fc 01       	movw	r30, r24
 402:	56 8d       	ldd	r21, Z+30	; 0x1e
 404:	37 8d       	ldd	r19, Z+31	; 0x1f
 406:	53 17       	cp	r21, r19
 408:	10 f0       	brcs	.+4      	; 0x40e <__LOCK_REGION_LENGTH__+0xe>
 40a:	22 30       	cpi	r18, 0x02	; 2
 40c:	e1 f4       	brne	.+56     	; 0x446 <__LOCK_REGION_LENGTH__+0x46>
 40e:	42 2f       	mov	r20, r18
 410:	78 01       	movw	r14, r16
 412:	ec 01       	movw	r28, r24
		{
			const int8_t cTxLock = pxQueue->cTxLock;
 414:	1a a1       	ldd	r17, Y+34	; 0x22
			/* Semaphores use xQueueGiveFromISR(), so pxQueue will not be a
			semaphore or mutex.  That means prvCopyDataToQueue() cannot result
			in a task disinheriting a priority and prvCopyDataToQueue() can be
			called here even though the disinherit function does not check if
			the scheduler is suspended before accessing the ready lists. */
			( void ) prvCopyDataToQueue( pxQueue, pvItemToQueue, xCopyPosition );
 416:	91 df       	rcall	.-222    	; 0x33a <prvCopyDataToQueue>

			/* The event list is not altered if the queue is locked.  This will
			be done when the queue is unlocked later. */
			if( cTxLock == queueUNLOCKED )
 418:	1f 3f       	cpi	r17, 0xFF	; 255
 41a:	79 f4       	brne	.+30     	; 0x43a <__LOCK_REGION_LENGTH__+0x3a>
						}
					}
				}
				#else /* configUSE_QUEUE_SETS */
				{
					if( listLIST_IS_EMPTY( &( pxQueue->xTasksWaitingToReceive ) ) == pdFALSE )
 41c:	8b 89       	ldd	r24, Y+19	; 0x13
 41e:	88 23       	and	r24, r24
 420:	a1 f0       	breq	.+40     	; 0x44a <__LOCK_REGION_LENGTH__+0x4a>
					{
						if( xTaskRemoveFromEventList( &( pxQueue->xTasksWaitingToReceive ) ) != pdFALSE )
 422:	ce 01       	movw	r24, r28
 424:	43 96       	adiw	r24, 0x13	; 19
 426:	5d d1       	rcall	.+698    	; 0x6e2 <xTaskRemoveFromEventList>
 428:	88 23       	and	r24, r24
 42a:	89 f0       	breq	.+34     	; 0x44e <__LOCK_REGION_LENGTH__+0x4e>
						{
							/* The task waiting has a higher priority so record that a
							context	switch is required. */
							if( pxHigherPriorityTaskWoken != NULL )
 42c:	e1 14       	cp	r14, r1
 42e:	f1 04       	cpc	r15, r1
 430:	81 f0       	breq	.+32     	; 0x452 <__LOCK_REGION_LENGTH__+0x52>
							{
								*pxHigherPriorityTaskWoken = pdTRUE;
 432:	81 e0       	ldi	r24, 0x01	; 1
 434:	f7 01       	movw	r30, r14
 436:	80 83       	st	Z, r24
 438:	0d c0       	rjmp	.+26     	; 0x454 <__LOCK_REGION_LENGTH__+0x54>
			}
			else
			{
				/* Increment the lock count so the task that unlocks the queue
				knows that data was posted while it was locked. */
				pxQueue->cTxLock = ( int8_t ) ( cTxLock + 1 );
 43a:	ff 24       	eor	r15, r15
 43c:	f3 94       	inc	r15
 43e:	f1 0e       	add	r15, r17
 440:	fa a2       	std	Y+34, r15	; 0x22
			}

			xReturn = pdPASS;
 442:	81 e0       	ldi	r24, 0x01	; 1
 444:	07 c0       	rjmp	.+14     	; 0x454 <__LOCK_REGION_LENGTH__+0x54>
		}
		else
		{
			traceQUEUE_SEND_FROM_ISR_FAILED( pxQueue );
			xReturn = errQUEUE_FULL;
 446:	80 e0       	ldi	r24, 0x00	; 0
 448:	05 c0       	rjmp	.+10     	; 0x454 <__LOCK_REGION_LENGTH__+0x54>
				/* Increment the lock count so the task that unlocks the queue
				knows that data was posted while it was locked. */
				pxQueue->cTxLock = ( int8_t ) ( cTxLock + 1 );
			}

			xReturn = pdPASS;
 44a:	81 e0       	ldi	r24, 0x01	; 1
 44c:	03 c0       	rjmp	.+6      	; 0x454 <__LOCK_REGION_LENGTH__+0x54>
 44e:	81 e0       	ldi	r24, 0x01	; 1
 450:	01 c0       	rjmp	.+2      	; 0x454 <__LOCK_REGION_LENGTH__+0x54>
 452:	81 e0       	ldi	r24, 0x01	; 1
		}
	}
	portCLEAR_INTERRUPT_MASK_FROM_ISR( uxSavedInterruptStatus );

	return xReturn;
}
 454:	df 91       	pop	r29
 456:	cf 91       	pop	r28
 458:	1f 91       	pop	r17
 45a:	0f 91       	pop	r16
 45c:	ff 90       	pop	r15
 45e:	ef 90       	pop	r14
 460:	08 95       	ret

00000462 <prvResetNextTaskUnblockTime>:
		}
		else
		{
			mtCOVERAGE_TEST_MARKER();
		}
	}
 462:	e0 91 1a 02 	lds	r30, 0x021A	; 0x80021a <pxDelayedTaskList>
 466:	f0 91 1b 02 	lds	r31, 0x021B	; 0x80021b <pxDelayedTaskList+0x1>
 46a:	80 81       	ld	r24, Z
 46c:	81 11       	cpse	r24, r1
 46e:	0c c0       	rjmp	.+24     	; 0x488 <prvResetNextTaskUnblockTime+0x26>
 470:	8f ef       	ldi	r24, 0xFF	; 255
 472:	9f ef       	ldi	r25, 0xFF	; 255
 474:	dc 01       	movw	r26, r24
 476:	80 93 01 02 	sts	0x0201, r24	; 0x800201 <xNextTaskUnblockTime>
 47a:	90 93 02 02 	sts	0x0202, r25	; 0x800202 <xNextTaskUnblockTime+0x1>
 47e:	a0 93 03 02 	sts	0x0203, r26	; 0x800203 <xNextTaskUnblockTime+0x2>
 482:	b0 93 04 02 	sts	0x0204, r27	; 0x800204 <xNextTaskUnblockTime+0x3>
 486:	08 95       	ret
 488:	e0 91 1a 02 	lds	r30, 0x021A	; 0x80021a <pxDelayedTaskList>
 48c:	f0 91 1b 02 	lds	r31, 0x021B	; 0x80021b <pxDelayedTaskList+0x1>
 490:	07 80       	ldd	r0, Z+7	; 0x07
 492:	f0 85       	ldd	r31, Z+8	; 0x08
 494:	e0 2d       	mov	r30, r0
 496:	00 84       	ldd	r0, Z+8	; 0x08
 498:	f1 85       	ldd	r31, Z+9	; 0x09
 49a:	e0 2d       	mov	r30, r0
 49c:	82 81       	ldd	r24, Z+2	; 0x02
 49e:	93 81       	ldd	r25, Z+3	; 0x03
 4a0:	a4 81       	ldd	r26, Z+4	; 0x04
 4a2:	b5 81       	ldd	r27, Z+5	; 0x05
 4a4:	80 93 01 02 	sts	0x0201, r24	; 0x800201 <xNextTaskUnblockTime>
 4a8:	90 93 02 02 	sts	0x0202, r25	; 0x800202 <xNextTaskUnblockTime+0x1>
 4ac:	a0 93 03 02 	sts	0x0203, r26	; 0x800203 <xNextTaskUnblockTime+0x2>
 4b0:	b0 93 04 02 	sts	0x0204, r27	; 0x800204 <xNextTaskUnblockTime+0x3>
 4b4:	08 95       	ret

000004b6 <xTaskIncrementTick>:
 4b6:	bf 92       	push	r11
 4b8:	cf 92       	push	r12
 4ba:	df 92       	push	r13
 4bc:	ef 92       	push	r14
 4be:	ff 92       	push	r15
 4c0:	0f 93       	push	r16
 4c2:	1f 93       	push	r17
 4c4:	cf 93       	push	r28
 4c6:	df 93       	push	r29
 4c8:	80 91 00 02 	lds	r24, 0x0200	; 0x800200 <__DATA_REGION_ORIGIN__>
 4cc:	81 11       	cpse	r24, r1
 4ce:	a5 c0       	rjmp	.+330    	; 0x61a <xTaskIncrementTick+0x164>
 4d0:	c0 90 09 02 	lds	r12, 0x0209	; 0x800209 <xTickCount>
 4d4:	d0 90 0a 02 	lds	r13, 0x020A	; 0x80020a <xTickCount+0x1>
 4d8:	e0 90 0b 02 	lds	r14, 0x020B	; 0x80020b <xTickCount+0x2>
 4dc:	f0 90 0c 02 	lds	r15, 0x020C	; 0x80020c <xTickCount+0x3>
 4e0:	2f ef       	ldi	r18, 0xFF	; 255
 4e2:	c2 1a       	sub	r12, r18
 4e4:	d2 0a       	sbc	r13, r18
 4e6:	e2 0a       	sbc	r14, r18
 4e8:	f2 0a       	sbc	r15, r18
 4ea:	c0 92 09 02 	sts	0x0209, r12	; 0x800209 <xTickCount>
 4ee:	d0 92 0a 02 	sts	0x020A, r13	; 0x80020a <xTickCount+0x1>
 4f2:	e0 92 0b 02 	sts	0x020B, r14	; 0x80020b <xTickCount+0x2>
 4f6:	f0 92 0c 02 	sts	0x020C, r15	; 0x80020c <xTickCount+0x3>
 4fa:	c1 14       	cp	r12, r1
 4fc:	d1 04       	cpc	r13, r1
 4fe:	e1 04       	cpc	r14, r1
 500:	f1 04       	cpc	r15, r1
 502:	b1 f4       	brne	.+44     	; 0x530 <xTaskIncrementTick+0x7a>
 504:	80 91 1a 02 	lds	r24, 0x021A	; 0x80021a <pxDelayedTaskList>
 508:	90 91 1b 02 	lds	r25, 0x021B	; 0x80021b <pxDelayedTaskList+0x1>
 50c:	20 91 18 02 	lds	r18, 0x0218	; 0x800218 <pxOverflowDelayedTaskList>
 510:	30 91 19 02 	lds	r19, 0x0219	; 0x800219 <pxOverflowDelayedTaskList+0x1>
 514:	30 93 1b 02 	sts	0x021B, r19	; 0x80021b <pxDelayedTaskList+0x1>
 518:	20 93 1a 02 	sts	0x021A, r18	; 0x80021a <pxDelayedTaskList>
 51c:	90 93 19 02 	sts	0x0219, r25	; 0x800219 <pxOverflowDelayedTaskList+0x1>
 520:	80 93 18 02 	sts	0x0218, r24	; 0x800218 <pxOverflowDelayedTaskList>
 524:	80 91 05 02 	lds	r24, 0x0205	; 0x800205 <xNumOfOverflows>
 528:	8f 5f       	subi	r24, 0xFF	; 255
 52a:	80 93 05 02 	sts	0x0205, r24	; 0x800205 <xNumOfOverflows>
 52e:	99 df       	rcall	.-206    	; 0x462 <prvResetNextTaskUnblockTime>
 530:	80 91 01 02 	lds	r24, 0x0201	; 0x800201 <xNextTaskUnblockTime>
 534:	90 91 02 02 	lds	r25, 0x0202	; 0x800202 <xNextTaskUnblockTime+0x1>
 538:	a0 91 03 02 	lds	r26, 0x0203	; 0x800203 <xNextTaskUnblockTime+0x2>
 53c:	b0 91 04 02 	lds	r27, 0x0204	; 0x800204 <xNextTaskUnblockTime+0x3>
 540:	c8 16       	cp	r12, r24
 542:	d9 06       	cpc	r13, r25
 544:	ea 06       	cpc	r14, r26
 546:	fb 06       	cpc	r15, r27
 548:	28 f4       	brcc	.+10     	; 0x554 <xTaskIncrementTick+0x9e>
 54a:	b1 2c       	mov	r11, r1
 54c:	57 c0       	rjmp	.+174    	; 0x5fc <xTaskIncrementTick+0x146>
 54e:	bb 24       	eor	r11, r11
 550:	b3 94       	inc	r11
 552:	01 c0       	rjmp	.+2      	; 0x556 <xTaskIncrementTick+0xa0>
 554:	b1 2c       	mov	r11, r1
 556:	e0 91 1a 02 	lds	r30, 0x021A	; 0x80021a <pxDelayedTaskList>
 55a:	f0 91 1b 02 	lds	r31, 0x021B	; 0x80021b <pxDelayedTaskList+0x1>
 55e:	80 81       	ld	r24, Z
 560:	81 11       	cpse	r24, r1
 562:	0c c0       	rjmp	.+24     	; 0x57c <xTaskIncrementTick+0xc6>
 564:	8f ef       	ldi	r24, 0xFF	; 255
 566:	9f ef       	ldi	r25, 0xFF	; 255
 568:	dc 01       	movw	r26, r24
 56a:	80 93 01 02 	sts	0x0201, r24	; 0x800201 <xNextTaskUnblockTime>
 56e:	90 93 02 02 	sts	0x0202, r25	; 0x800202 <xNextTaskUnblockTime+0x1>
 572:	a0 93 03 02 	sts	0x0203, r26	; 0x800203 <xNextTaskUnblockTime+0x2>
 576:	b0 93 04 02 	sts	0x0204, r27	; 0x800204 <xNextTaskUnblockTime+0x3>
 57a:	40 c0       	rjmp	.+128    	; 0x5fc <xTaskIncrementTick+0x146>
 57c:	e0 91 1a 02 	lds	r30, 0x021A	; 0x80021a <pxDelayedTaskList>
 580:	f0 91 1b 02 	lds	r31, 0x021B	; 0x80021b <pxDelayedTaskList+0x1>
 584:	07 80       	ldd	r0, Z+7	; 0x07
 586:	f0 85       	ldd	r31, Z+8	; 0x08
 588:	e0 2d       	mov	r30, r0
 58a:	c0 85       	ldd	r28, Z+8	; 0x08
 58c:	d1 85       	ldd	r29, Z+9	; 0x09
 58e:	8a 81       	ldd	r24, Y+2	; 0x02
 590:	9b 81       	ldd	r25, Y+3	; 0x03
 592:	ac 81       	ldd	r26, Y+4	; 0x04
 594:	bd 81       	ldd	r27, Y+5	; 0x05
 596:	c8 16       	cp	r12, r24
 598:	d9 06       	cpc	r13, r25
 59a:	ea 06       	cpc	r14, r26
 59c:	fb 06       	cpc	r15, r27
 59e:	48 f4       	brcc	.+18     	; 0x5b2 <xTaskIncrementTick+0xfc>
 5a0:	80 93 01 02 	sts	0x0201, r24	; 0x800201 <xNextTaskUnblockTime>
 5a4:	90 93 02 02 	sts	0x0202, r25	; 0x800202 <xNextTaskUnblockTime+0x1>
 5a8:	a0 93 03 02 	sts	0x0203, r26	; 0x800203 <xNextTaskUnblockTime+0x2>
 5ac:	b0 93 04 02 	sts	0x0204, r27	; 0x800204 <xNextTaskUnblockTime+0x3>
 5b0:	25 c0       	rjmp	.+74     	; 0x5fc <xTaskIncrementTick+0x146>
 5b2:	8e 01       	movw	r16, r28
 5b4:	0e 5f       	subi	r16, 0xFE	; 254
 5b6:	1f 4f       	sbci	r17, 0xFF	; 255
 5b8:	c8 01       	movw	r24, r16
 5ba:	d5 dd       	rcall	.-1110   	; 0x166 <uxListRemove>
 5bc:	88 8d       	ldd	r24, Y+24	; 0x18
 5be:	99 8d       	ldd	r25, Y+25	; 0x19
 5c0:	89 2b       	or	r24, r25
 5c2:	19 f0       	breq	.+6      	; 0x5ca <xTaskIncrementTick+0x114>
 5c4:	ce 01       	movw	r24, r28
 5c6:	0e 96       	adiw	r24, 0x0e	; 14
 5c8:	ce dd       	rcall	.-1124   	; 0x166 <uxListRemove>
 5ca:	8a 8d       	ldd	r24, Y+26	; 0x1a
 5cc:	90 91 08 02 	lds	r25, 0x0208	; 0x800208 <uxTopReadyPriority>
 5d0:	98 17       	cp	r25, r24
 5d2:	10 f4       	brcc	.+4      	; 0x5d8 <xTaskIncrementTick+0x122>
 5d4:	80 93 08 02 	sts	0x0208, r24	; 0x800208 <uxTopReadyPriority>
 5d8:	2b e0       	ldi	r18, 0x0B	; 11
 5da:	82 9f       	mul	r24, r18
 5dc:	c0 01       	movw	r24, r0
 5de:	11 24       	eor	r1, r1
 5e0:	b8 01       	movw	r22, r16
 5e2:	84 5e       	subi	r24, 0xE4	; 228
 5e4:	9d 4f       	sbci	r25, 0xFD	; 253
 5e6:	9e dd       	rcall	.-1220   	; 0x124 <vListInsertEnd>
 5e8:	9a 8d       	ldd	r25, Y+26	; 0x1a
 5ea:	e0 91 53 02 	lds	r30, 0x0253	; 0x800253 <pxCurrentTCB>
 5ee:	f0 91 54 02 	lds	r31, 0x0254	; 0x800254 <pxCurrentTCB+0x1>
 5f2:	82 8d       	ldd	r24, Z+26	; 0x1a
 5f4:	98 17       	cp	r25, r24
 5f6:	08 f0       	brcs	.+2      	; 0x5fa <xTaskIncrementTick+0x144>
 5f8:	aa cf       	rjmp	.-172    	; 0x54e <xTaskIncrementTick+0x98>
 5fa:	ad cf       	rjmp	.-166    	; 0x556 <xTaskIncrementTick+0xa0>
 5fc:	e0 91 53 02 	lds	r30, 0x0253	; 0x800253 <pxCurrentTCB>
 600:	f0 91 54 02 	lds	r31, 0x0254	; 0x800254 <pxCurrentTCB+0x1>
 604:	e2 8d       	ldd	r30, Z+26	; 0x1a
 606:	8b e0       	ldi	r24, 0x0B	; 11
 608:	e8 9f       	mul	r30, r24
 60a:	f0 01       	movw	r30, r0
 60c:	11 24       	eor	r1, r1
 60e:	e4 5e       	subi	r30, 0xE4	; 228
 610:	fd 4f       	sbci	r31, 0xFD	; 253
 612:	80 81       	ld	r24, Z
 614:	82 30       	cpi	r24, 0x02	; 2
 616:	40 f4       	brcc	.+16     	; 0x628 <xTaskIncrementTick+0x172>
 618:	09 c0       	rjmp	.+18     	; 0x62c <xTaskIncrementTick+0x176>
 61a:	80 91 07 02 	lds	r24, 0x0207	; 0x800207 <uxPendedTicks>
 61e:	8f 5f       	subi	r24, 0xFF	; 255
 620:	80 93 07 02 	sts	0x0207, r24	; 0x800207 <uxPendedTicks>
 624:	b1 2c       	mov	r11, r1
 626:	02 c0       	rjmp	.+4      	; 0x62c <xTaskIncrementTick+0x176>
 628:	bb 24       	eor	r11, r11
 62a:	b3 94       	inc	r11
 62c:	80 91 06 02 	lds	r24, 0x0206	; 0x800206 <xYieldPending>
 630:	88 23       	and	r24, r24
 632:	11 f0       	breq	.+4      	; 0x638 <xTaskIncrementTick+0x182>
 634:	bb 24       	eor	r11, r11
 636:	b3 94       	inc	r11
 638:	8b 2d       	mov	r24, r11
 63a:	df 91       	pop	r29
 63c:	cf 91       	pop	r28
 63e:	1f 91       	pop	r17
 640:	0f 91       	pop	r16
 642:	ff 90       	pop	r15
 644:	ef 90       	pop	r14
 646:	df 90       	pop	r13
 648:	cf 90       	pop	r12
 64a:	bf 90       	pop	r11
 64c:	08 95       	ret

0000064e <vTaskSwitchContext>:
 64e:	80 91 00 02 	lds	r24, 0x0200	; 0x800200 <__DATA_REGION_ORIGIN__>
 652:	88 23       	and	r24, r24
 654:	21 f0       	breq	.+8      	; 0x65e <vTaskSwitchContext+0x10>
 656:	81 e0       	ldi	r24, 0x01	; 1
 658:	80 93 06 02 	sts	0x0206, r24	; 0x800206 <xYieldPending>
 65c:	08 95       	ret
 65e:	10 92 06 02 	sts	0x0206, r1	; 0x800206 <xYieldPending>
 662:	80 91 08 02 	lds	r24, 0x0208	; 0x800208 <uxTopReadyPriority>
 666:	01 c0       	rjmp	.+2      	; 0x66a <vTaskSwitchContext+0x1c>
 668:	81 50       	subi	r24, 0x01	; 1
 66a:	28 2f       	mov	r18, r24
 66c:	30 e0       	ldi	r19, 0x00	; 0
 66e:	9b e0       	ldi	r25, 0x0B	; 11
 670:	92 9f       	mul	r25, r18
 672:	f0 01       	movw	r30, r0
 674:	93 9f       	mul	r25, r19
 676:	f0 0d       	add	r31, r0
 678:	11 24       	eor	r1, r1
 67a:	e4 5e       	subi	r30, 0xE4	; 228
 67c:	fd 4f       	sbci	r31, 0xFD	; 253
 67e:	90 81       	ld	r25, Z
 680:	99 23       	and	r25, r25
 682:	91 f3       	breq	.-28     	; 0x668 <vTaskSwitchContext+0x1a>
 684:	9b e0       	ldi	r25, 0x0B	; 11
 686:	92 9f       	mul	r25, r18
 688:	a0 01       	movw	r20, r0
 68a:	93 9f       	mul	r25, r19
 68c:	50 0d       	add	r21, r0
 68e:	11 24       	eor	r1, r1
 690:	df 01       	movw	r26, r30
 692:	01 80       	ldd	r0, Z+1	; 0x01
 694:	f2 81       	ldd	r31, Z+2	; 0x02
 696:	e0 2d       	mov	r30, r0
 698:	04 80       	ldd	r0, Z+4	; 0x04
 69a:	f5 81       	ldd	r31, Z+5	; 0x05
 69c:	e0 2d       	mov	r30, r0
 69e:	12 96       	adiw	r26, 0x02	; 2
 6a0:	fc 93       	st	X, r31
 6a2:	ee 93       	st	-X, r30
 6a4:	11 97       	sbiw	r26, 0x01	; 1
 6a6:	41 5e       	subi	r20, 0xE1	; 225
 6a8:	5d 4f       	sbci	r21, 0xFD	; 253
 6aa:	e4 17       	cp	r30, r20
 6ac:	f5 07       	cpc	r31, r21
 6ae:	29 f4       	brne	.+10     	; 0x6ba <vTaskSwitchContext+0x6c>
 6b0:	44 81       	ldd	r20, Z+4	; 0x04
 6b2:	55 81       	ldd	r21, Z+5	; 0x05
 6b4:	fd 01       	movw	r30, r26
 6b6:	52 83       	std	Z+2, r21	; 0x02
 6b8:	41 83       	std	Z+1, r20	; 0x01
 6ba:	9b e0       	ldi	r25, 0x0B	; 11
 6bc:	92 9f       	mul	r25, r18
 6be:	f0 01       	movw	r30, r0
 6c0:	93 9f       	mul	r25, r19
 6c2:	f0 0d       	add	r31, r0
 6c4:	11 24       	eor	r1, r1
 6c6:	e4 5e       	subi	r30, 0xE4	; 228
 6c8:	fd 4f       	sbci	r31, 0xFD	; 253
 6ca:	01 80       	ldd	r0, Z+1	; 0x01
 6cc:	f2 81       	ldd	r31, Z+2	; 0x02
 6ce:	e0 2d       	mov	r30, r0
 6d0:	20 85       	ldd	r18, Z+8	; 0x08
 6d2:	31 85       	ldd	r19, Z+9	; 0x09
 6d4:	30 93 54 02 	sts	0x0254, r19	; 0x800254 <pxCurrentTCB+0x1>
 6d8:	20 93 53 02 	sts	0x0253, r18	; 0x800253 <pxCurrentTCB>
 6dc:	80 93 08 02 	sts	0x0208, r24	; 0x800208 <uxTopReadyPriority>
 6e0:	08 95       	ret

000006e2 <xTaskRemoveFromEventList>:
 6e2:	0f 93       	push	r16
 6e4:	1f 93       	push	r17
 6e6:	cf 93       	push	r28
 6e8:	df 93       	push	r29
 6ea:	dc 01       	movw	r26, r24
 6ec:	17 96       	adiw	r26, 0x07	; 7
 6ee:	ed 91       	ld	r30, X+
 6f0:	fc 91       	ld	r31, X
 6f2:	18 97       	sbiw	r26, 0x08	; 8
 6f4:	c0 85       	ldd	r28, Z+8	; 0x08
 6f6:	d1 85       	ldd	r29, Z+9	; 0x09
 6f8:	8e 01       	movw	r16, r28
 6fa:	02 5f       	subi	r16, 0xF2	; 242
 6fc:	1f 4f       	sbci	r17, 0xFF	; 255
 6fe:	c8 01       	movw	r24, r16
 700:	32 dd       	rcall	.-1436   	; 0x166 <uxListRemove>
 702:	80 91 00 02 	lds	r24, 0x0200	; 0x800200 <__DATA_REGION_ORIGIN__>
 706:	81 11       	cpse	r24, r1
 708:	14 c0       	rjmp	.+40     	; 0x732 <xTaskRemoveFromEventList+0x50>
 70a:	0c 50       	subi	r16, 0x0C	; 12
 70c:	11 09       	sbc	r17, r1
 70e:	c8 01       	movw	r24, r16
 710:	2a dd       	rcall	.-1452   	; 0x166 <uxListRemove>
 712:	8a 8d       	ldd	r24, Y+26	; 0x1a
 714:	90 91 08 02 	lds	r25, 0x0208	; 0x800208 <uxTopReadyPriority>
 718:	98 17       	cp	r25, r24
 71a:	10 f4       	brcc	.+4      	; 0x720 <xTaskRemoveFromEventList+0x3e>
 71c:	80 93 08 02 	sts	0x0208, r24	; 0x800208 <uxTopReadyPriority>
 720:	bb e0       	ldi	r27, 0x0B	; 11
 722:	8b 9f       	mul	r24, r27
 724:	c0 01       	movw	r24, r0
 726:	11 24       	eor	r1, r1
 728:	b8 01       	movw	r22, r16
 72a:	84 5e       	subi	r24, 0xE4	; 228
 72c:	9d 4f       	sbci	r25, 0xFD	; 253
 72e:	fa dc       	rcall	.-1548   	; 0x124 <vListInsertEnd>
 730:	04 c0       	rjmp	.+8      	; 0x73a <xTaskRemoveFromEventList+0x58>
 732:	b8 01       	movw	r22, r16
 734:	8d e0       	ldi	r24, 0x0D	; 13
 736:	92 e0       	ldi	r25, 0x02	; 2
 738:	f5 dc       	rcall	.-1558   	; 0x124 <vListInsertEnd>
 73a:	9a 8d       	ldd	r25, Y+26	; 0x1a
 73c:	e0 91 53 02 	lds	r30, 0x0253	; 0x800253 <pxCurrentTCB>
 740:	f0 91 54 02 	lds	r31, 0x0254	; 0x800254 <pxCurrentTCB+0x1>
 744:	82 8d       	ldd	r24, Z+26	; 0x1a
 746:	89 17       	cp	r24, r25
 748:	20 f4       	brcc	.+8      	; 0x752 <xTaskRemoveFromEventList+0x70>
 74a:	81 e0       	ldi	r24, 0x01	; 1
 74c:	80 93 06 02 	sts	0x0206, r24	; 0x800206 <xYieldPending>
 750:	01 c0       	rjmp	.+2      	; 0x754 <xTaskRemoveFromEventList+0x72>
 752:	80 e0       	ldi	r24, 0x00	; 0
 754:	df 91       	pop	r29
 756:	cf 91       	pop	r28
 758:	1f 91       	pop	r17
 75a:	0f 91       	pop	r16
 75c:	08 95       	ret

0000075e <xTaskPriorityDisinherit>:
/*-----------------------------------------------------------*/

#if ( configUSE_MUTEXES == 1 )

	BaseType_t xTaskPriorityDisinherit( TaskHandle_t const pxMutexHolder )
	{
 75e:	0f 93       	push	r16
 760:	1f 93       	push	r17
 762:	cf 93       	push	r28
 764:	df 93       	push	r29
 766:	fc 01       	movw	r30, r24
	TCB_t * const pxTCB = ( TCB_t * ) pxMutexHolder;
	BaseType_t xReturn = pdFALSE;

		if( pxMutexHolder != NULL )
 768:	89 2b       	or	r24, r25
 76a:	69 f1       	breq	.+90     	; 0x7c6 <xTaskPriorityDisinherit+0x68>
			interrupt, and if a mutex is given by the holding task then it must
			be the running state task. */
			configASSERT( pxTCB == pxCurrentTCB );

			configASSERT( pxTCB->uxMutexesHeld );
			( pxTCB->uxMutexesHeld )--;
 76c:	82 a9       	ldd	r24, Z+50	; 0x32
 76e:	81 50       	subi	r24, 0x01	; 1
 770:	82 ab       	std	Z+50, r24	; 0x32

			/* Has the holder of the mutex inherited the priority of another
			task? */
			if( pxTCB->uxPriority != pxTCB->uxBasePriority )
 772:	22 8d       	ldd	r18, Z+26	; 0x1a
 774:	91 a9       	ldd	r25, Z+49	; 0x31
 776:	29 17       	cp	r18, r25
 778:	41 f1       	breq	.+80     	; 0x7ca <xTaskPriorityDisinherit+0x6c>
			{
				/* Only disinherit if no other mutexes are held. */
				if( pxTCB->uxMutexesHeld == ( UBaseType_t ) 0 )
 77a:	81 11       	cpse	r24, r1
 77c:	28 c0       	rjmp	.+80     	; 0x7ce <xTaskPriorityDisinherit+0x70>
 77e:	ef 01       	movw	r28, r30
					/* A task can only have an inherited priority if it holds
					the mutex.  If the mutex is held by a task then it cannot be
					given from an interrupt, and if a mutex is given by the
					holding	task then it must be the running state task.  Remove
					the	holding task from the ready	list. */
					if( uxListRemove( &( pxTCB->xStateListItem ) ) == ( UBaseType_t ) 0 )
 780:	8f 01       	movw	r16, r30
 782:	0e 5f       	subi	r16, 0xFE	; 254
 784:	1f 4f       	sbci	r17, 0xFF	; 255
 786:	c8 01       	movw	r24, r16
 788:	ee dc       	rcall	.-1572   	; 0x166 <uxListRemove>
					}

					/* Disinherit the priority before adding the task into the
					new	ready list. */
					traceTASK_PRIORITY_DISINHERIT( pxTCB, pxTCB->uxBasePriority );
					pxTCB->uxPriority = pxTCB->uxBasePriority;
 78a:	89 a9       	ldd	r24, Y+49	; 0x31
 78c:	8a 8f       	std	Y+26, r24	; 0x1a

					/* Reset the event list item value.  It cannot be in use for
					any other purpose if this task is running, and it must be
					running to give back the mutex. */
					listSET_LIST_ITEM_VALUE( &( pxTCB->xEventListItem ), ( TickType_t ) configMAX_PRIORITIES - ( TickType_t ) pxTCB->uxPriority ); /*lint !e961 MISRA exception as the casts are only redundant for some ports. */
 78e:	45 e0       	ldi	r20, 0x05	; 5
 790:	50 e0       	ldi	r21, 0x00	; 0
 792:	60 e0       	ldi	r22, 0x00	; 0
 794:	70 e0       	ldi	r23, 0x00	; 0
 796:	48 1b       	sub	r20, r24
 798:	51 09       	sbc	r21, r1
 79a:	61 09       	sbc	r22, r1
 79c:	71 09       	sbc	r23, r1
 79e:	4e 87       	std	Y+14, r20	; 0x0e
 7a0:	5f 87       	std	Y+15, r21	; 0x0f
 7a2:	68 8b       	std	Y+16, r22	; 0x10
 7a4:	79 8b       	std	Y+17, r23	; 0x11
					prvAddTaskToReadyList( pxTCB );
 7a6:	90 91 08 02 	lds	r25, 0x0208	; 0x800208 <uxTopReadyPriority>
 7aa:	98 17       	cp	r25, r24
 7ac:	10 f4       	brcc	.+4      	; 0x7b2 <xTaskPriorityDisinherit+0x54>
 7ae:	80 93 08 02 	sts	0x0208, r24	; 0x800208 <uxTopReadyPriority>
 7b2:	2b e0       	ldi	r18, 0x0B	; 11
 7b4:	82 9f       	mul	r24, r18
 7b6:	c0 01       	movw	r24, r0
 7b8:	11 24       	eor	r1, r1
 7ba:	b8 01       	movw	r22, r16
 7bc:	84 5e       	subi	r24, 0xE4	; 228
 7be:	9d 4f       	sbci	r25, 0xFD	; 253
 7c0:	b1 dc       	rcall	.-1694   	; 0x124 <vListInsertEnd>
					in an order different to that in which they were taken.
					If a context switch did not occur when the first mutex was
					returned, even if a task was waiting on it, then a context
					switch should occur when the last mutex is returned whether
					a task is waiting on it or not. */
					xReturn = pdTRUE;
 7c2:	81 e0       	ldi	r24, 0x01	; 1
 7c4:	05 c0       	rjmp	.+10     	; 0x7d0 <xTaskPriorityDisinherit+0x72>
#if ( configUSE_MUTEXES == 1 )

	BaseType_t xTaskPriorityDisinherit( TaskHandle_t const pxMutexHolder )
	{
	TCB_t * const pxTCB = ( TCB_t * ) pxMutexHolder;
	BaseType_t xReturn = pdFALSE;
 7c6:	80 e0       	ldi	r24, 0x00	; 0
 7c8:	03 c0       	rjmp	.+6      	; 0x7d0 <xTaskPriorityDisinherit+0x72>
 7ca:	80 e0       	ldi	r24, 0x00	; 0
 7cc:	01 c0       	rjmp	.+2      	; 0x7d0 <xTaskPriorityDisinherit+0x72>
 7ce:	80 e0       	ldi	r24, 0x00	; 0
		{
			mtCOVERAGE_TEST_MARKER();
		}

		return xReturn;
	}
 7d0:	df 91       	pop	r29
 7d2:	cf 91       	pop	r28
 7d4:	1f 91       	pop	r17
 7d6:	0f 91       	pop	r16
 7d8:	08 95       	ret

000007da <main>:
#define RX_QUEUE_LEN 30
#define EVENTS_QUEUE_LEN 10
#define SIM_PRESSURE_LEN 10

int main(void)
{
 7da:	0f 93       	push	r16
 7dc:	1f 93       	push	r17
 7de:	cf 93       	push	r28
 7e0:	df 93       	push	r29
 7e2:	00 d0       	rcall	.+0      	; 0x7e4 <main+0xa>
 7e4:	1f 92       	push	r1
 7e6:	cd b7       	in	r28, 0x3d	; 61
 7e8:	de b7       	in	r29, 0x3e	; 62
	sei();
 7ea:	78 94       	sei
	
	UART_init(UBBR);
 7ec:	87 e6       	ldi	r24, 0x67	; 103
 7ee:	90 e0       	ldi	r25, 0x00	; 0
 7f0:	35 d0       	rcall	.+106    	; 0x85c <UART_init>
	SPI_init();
 7f2:	2c d0       	rcall	.+88     	; 0x84c <SPI_init>
 7f4:	8a ea       	ldi	r24, 0xAA	; 170
	//vTaskStartScheduler();
//
	///* Execution will only reach here if there was insufficient heap to start the scheduler. */
	//for ( ;; );
	
	uint8_t command[4] = {0xAA, 0x01, 0x00, 1};
 7f6:	89 83       	std	Y+1, r24	; 0x01
 7f8:	81 e0       	ldi	r24, 0x01	; 1
 7fa:	8a 83       	std	Y+2, r24	; 0x02
 7fc:	1b 82       	std	Y+3, r1	; 0x03
 7fe:	8c 83       	std	Y+4, r24	; 0x04
 800:	06 e5       	ldi	r16, 0x56	; 86
	BNO_buffer[0] = 0x67;
 802:	12 e0       	ldi	r17, 0x02	; 2
 804:	87 e6       	ldi	r24, 0x67	; 103
 806:	f8 01       	movw	r30, r16
 808:	80 83       	st	Z, r24
 80a:	64 e0       	ldi	r22, 0x04	; 4
	
	UART2_send_bytes(&command, 4);
 80c:	70 e0       	ldi	r23, 0x00	; 0
 80e:	ce 01       	movw	r24, r28
 810:	01 96       	adiw	r24, 0x01	; 1
 812:	46 d0       	rcall	.+140    	; 0x8a0 <UART2_send_bytes>
 814:	ff ef       	ldi	r31, 0xFF	; 255
	#else
		//round up by default
		__ticks_dc = (uint32_t)(ceil(fabs(__tmp)));
	#endif

	__builtin_avr_delay_cycles(__ticks_dc);
 816:	23 ed       	ldi	r18, 0xD3	; 211
 818:	80 e3       	ldi	r24, 0x30	; 48
 81a:	f1 50       	subi	r31, 0x01	; 1
 81c:	20 40       	sbci	r18, 0x00	; 0
 81e:	80 40       	sbci	r24, 0x00	; 0
 820:	e1 f7       	brne	.-8      	; 0x81a <main+0x40>
 822:	00 c0       	rjmp	.+0      	; 0x824 <main+0x4a>
 824:	00 00       	nop
 826:	f8 01       	movw	r30, r16
	
	_delay_ms(1000);
	
	UART0_send_bytes(BNO_buffer[0], 1);
 828:	80 81       	ld	r24, Z
 82a:	61 e0       	ldi	r22, 0x01	; 1
 82c:	70 e0       	ldi	r23, 0x00	; 0
 82e:	90 e0       	ldi	r25, 0x00	; 0
 830:	af d0       	rcall	.+350    	; 0x990 <UART0_send_bytes>
 832:	10 92 55 02 	sts	0x0255, r1	; 0x800255 <buffer_index>
	buffer_index = 0; // remember to always reset buffer after reading;
 836:	80 e0       	ldi	r24, 0x00	; 0
	
	return 0;
}
 838:	90 e0       	ldi	r25, 0x00	; 0
 83a:	0f 90       	pop	r0
 83c:	0f 90       	pop	r0
 83e:	0f 90       	pop	r0
 840:	0f 90       	pop	r0
 842:	df 91       	pop	r29
 844:	cf 91       	pop	r28
 846:	1f 91       	pop	r17
 848:	0f 91       	pop	r16
 84a:	08 95       	ret

0000084c <SPI_init>:
 */ 

#include "spi.h"

void SPI_init(void) {
	DDR_SPI = (1<<SS) | (1<<SCK) | (1<<MOSI); // set relevant pins to output
 84c:	87 e0       	ldi	r24, 0x07	; 7
 84e:	84 b9       	out	0x04, r24	; 4
	SPCR = (1<<SPE) | (1<<MSTR) | (1<<SPR0); // enable spi, set as master, use mode 0, set sck = f/16
 850:	81 e5       	ldi	r24, 0x51	; 81
 852:	8c bd       	out	0x2c, r24	; 44
	PORTB |= (1<<SS); // add when more slaves added
 854:	85 b1       	in	r24, 0x05	; 5
 856:	81 60       	ori	r24, 0x01	; 1
 858:	85 b9       	out	0x05, r24	; 5
 85a:	08 95       	ret

0000085c <UART_init>:
}

// Deprecated
uint8_t UART1_is_ready() {
	return (UCSR1A & (1<<RXC1));
}
 85c:	90 93 c5 00 	sts	0x00C5, r25	; 0x8000c5 <__TEXT_REGION_LENGTH__+0x7c00c5>
 860:	80 93 c4 00 	sts	0x00C4, r24	; 0x8000c4 <__TEXT_REGION_LENGTH__+0x7c00c4>
 864:	28 e1       	ldi	r18, 0x18	; 24
 866:	20 93 c1 00 	sts	0x00C1, r18	; 0x8000c1 <__TEXT_REGION_LENGTH__+0x7c00c1>
 86a:	26 e0       	ldi	r18, 0x06	; 6
 86c:	20 93 c2 00 	sts	0x00C2, r18	; 0x8000c2 <__TEXT_REGION_LENGTH__+0x7c00c2>
 870:	90 93 cd 00 	sts	0x00CD, r25	; 0x8000cd <__TEXT_REGION_LENGTH__+0x7c00cd>
 874:	80 93 cc 00 	sts	0x00CC, r24	; 0x8000cc <__TEXT_REGION_LENGTH__+0x7c00cc>
 878:	88 e9       	ldi	r24, 0x98	; 152
 87a:	80 93 c9 00 	sts	0x00C9, r24	; 0x8000c9 <__TEXT_REGION_LENGTH__+0x7c00c9>
 87e:	20 93 ca 00 	sts	0x00CA, r18	; 0x8000ca <__TEXT_REGION_LENGTH__+0x7c00ca>
 882:	08 95       	ret

00000884 <UART0_tx>:
 884:	90 91 c0 00 	lds	r25, 0x00C0	; 0x8000c0 <__TEXT_REGION_LENGTH__+0x7c00c0>
 888:	95 ff       	sbrs	r25, 5
 88a:	fc cf       	rjmp	.-8      	; 0x884 <UART0_tx>
 88c:	80 93 c6 00 	sts	0x00C6, r24	; 0x8000c6 <__TEXT_REGION_LENGTH__+0x7c00c6>
 890:	08 95       	ret

00000892 <UART2_tx>:
 892:	90 91 d0 00 	lds	r25, 0x00D0	; 0x8000d0 <__TEXT_REGION_LENGTH__+0x7c00d0>
 896:	95 ff       	sbrs	r25, 5
 898:	fc cf       	rjmp	.-8      	; 0x892 <UART2_tx>
 89a:	80 93 d6 00 	sts	0x00D6, r24	; 0x8000d6 <__TEXT_REGION_LENGTH__+0x7c00d6>
 89e:	08 95       	ret

000008a0 <UART2_send_bytes>:
 8a0:	0f 93       	push	r16
 8a2:	1f 93       	push	r17
 8a4:	cf 93       	push	r28
 8a6:	df 93       	push	r29
 8a8:	ec 01       	movw	r28, r24
 8aa:	8c 01       	movw	r16, r24
 8ac:	06 0f       	add	r16, r22
 8ae:	17 1f       	adc	r17, r23
 8b0:	02 c0       	rjmp	.+4      	; 0x8b6 <UART2_send_bytes+0x16>
 8b2:	89 91       	ld	r24, Y+
 8b4:	ee df       	rcall	.-36     	; 0x892 <UART2_tx>
 8b6:	c0 17       	cp	r28, r16
 8b8:	d1 07       	cpc	r29, r17
 8ba:	d8 f3       	brcs	.-10     	; 0x8b2 <UART2_send_bytes+0x12>
 8bc:	df 91       	pop	r29
 8be:	cf 91       	pop	r28
 8c0:	1f 91       	pop	r17
 8c2:	0f 91       	pop	r16
 8c4:	08 95       	ret

000008c6 <__vector_36>:
 8c6:	1f 92       	push	r1
 8c8:	0f 92       	push	r0
 8ca:	0f b6       	in	r0, 0x3f	; 63
 8cc:	0f 92       	push	r0
 8ce:	11 24       	eor	r1, r1
 8d0:	0b b6       	in	r0, 0x3b	; 59
 8d2:	0f 92       	push	r0
 8d4:	2f 93       	push	r18
 8d6:	3f 93       	push	r19
 8d8:	4f 93       	push	r20
 8da:	5f 93       	push	r21
 8dc:	6f 93       	push	r22
 8de:	7f 93       	push	r23
 8e0:	8f 93       	push	r24
 8e2:	9f 93       	push	r25
 8e4:	af 93       	push	r26
 8e6:	bf 93       	push	r27
 8e8:	ef 93       	push	r30
 8ea:	ff 93       	push	r31
 8ec:	cf 93       	push	r28
 8ee:	df 93       	push	r29
 8f0:	1f 92       	push	r1
 8f2:	1f 92       	push	r1
 8f4:	cd b7       	in	r28, 0x3d	; 61
 8f6:	de b7       	in	r29, 0x3e	; 62
 8f8:	80 91 ce 00 	lds	r24, 0x00CE	; 0x8000ce <__TEXT_REGION_LENGTH__+0x7c00ce>
 8fc:	89 83       	std	Y+1, r24	; 0x01
 8fe:	1a 82       	std	Y+2, r1	; 0x02
 900:	20 e0       	ldi	r18, 0x00	; 0
 902:	ae 01       	movw	r20, r28
 904:	4e 5f       	subi	r20, 0xFE	; 254
 906:	5f 4f       	sbci	r21, 0xFF	; 255
 908:	be 01       	movw	r22, r28
 90a:	6f 5f       	subi	r22, 0xFF	; 255
 90c:	7f 4f       	sbci	r23, 0xFF	; 255
 90e:	80 91 6a 02 	lds	r24, 0x026A	; 0x80026a <uart1_rx_queue>
 912:	90 91 6b 02 	lds	r25, 0x026B	; 0x80026b <uart1_rx_queue+0x1>
 916:	6d dd       	rcall	.-1318   	; 0x3f2 <xQueueGenericSendFromISR>
 918:	8a 81       	ldd	r24, Y+2	; 0x02
 91a:	81 11       	cpse	r24, r1
 91c:	4a dc       	rcall	.-1900   	; 0x1b2 <vPortYield>
 91e:	0f 90       	pop	r0
 920:	0f 90       	pop	r0
 922:	df 91       	pop	r29
 924:	cf 91       	pop	r28
 926:	ff 91       	pop	r31
 928:	ef 91       	pop	r30
 92a:	bf 91       	pop	r27
 92c:	af 91       	pop	r26
 92e:	9f 91       	pop	r25
 930:	8f 91       	pop	r24
 932:	7f 91       	pop	r23
 934:	6f 91       	pop	r22
 936:	5f 91       	pop	r21
 938:	4f 91       	pop	r20
 93a:	3f 91       	pop	r19
 93c:	2f 91       	pop	r18
 93e:	0f 90       	pop	r0
 940:	0b be       	out	0x3b, r0	; 59
 942:	0f 90       	pop	r0
 944:	0f be       	out	0x3f, r0	; 63
 946:	0f 90       	pop	r0
 948:	1f 90       	pop	r1
 94a:	18 95       	reti

0000094c <__vector_51>:
 94c:	1f 92       	push	r1
 94e:	0f 92       	push	r0
 950:	0f b6       	in	r0, 0x3f	; 63
 952:	0f 92       	push	r0
 954:	11 24       	eor	r1, r1
 956:	0b b6       	in	r0, 0x3b	; 59
 958:	0f 92       	push	r0
 95a:	8f 93       	push	r24
 95c:	9f 93       	push	r25
 95e:	ef 93       	push	r30
 960:	ff 93       	push	r31
 962:	80 91 d6 00 	lds	r24, 0x00D6	; 0x8000d6 <__TEXT_REGION_LENGTH__+0x7c00d6>
 966:	e0 91 55 02 	lds	r30, 0x0255	; 0x800255 <buffer_index>
 96a:	91 e0       	ldi	r25, 0x01	; 1
 96c:	9e 0f       	add	r25, r30
 96e:	90 93 55 02 	sts	0x0255, r25	; 0x800255 <buffer_index>
 972:	f0 e0       	ldi	r31, 0x00	; 0
 974:	ea 5a       	subi	r30, 0xAA	; 170
 976:	fd 4f       	sbci	r31, 0xFD	; 253
 978:	80 83       	st	Z, r24
 97a:	ff 91       	pop	r31
 97c:	ef 91       	pop	r30
 97e:	9f 91       	pop	r25
 980:	8f 91       	pop	r24
 982:	0f 90       	pop	r0
 984:	0b be       	out	0x3b, r0	; 59
 986:	0f 90       	pop	r0
 988:	0f be       	out	0x3f, r0	; 63
 98a:	0f 90       	pop	r0
 98c:	1f 90       	pop	r1
 98e:	18 95       	reti

00000990 <UART0_send_bytes>:

void UART0_send_bytes(char *s, size_t size) {
 990:	0f 93       	push	r16
 992:	1f 93       	push	r17
 994:	cf 93       	push	r28
 996:	df 93       	push	r29
 998:	ec 01       	movw	r28, r24
	char* end = s + size;
 99a:	8c 01       	movw	r16, r24
 99c:	06 0f       	add	r16, r22
 99e:	17 1f       	adc	r17, r23
	while (s < end) {
 9a0:	02 c0       	rjmp	.+4      	; 0x9a6 <UART0_send_bytes+0x16>
		UART0_tx(*s);
 9a2:	89 91       	ld	r24, Y+
 9a4:	6f df       	rcall	.-290    	; 0x884 <UART0_tx>
	return (UCSR1A & (1<<RXC1));
}

void UART0_send_bytes(char *s, size_t size) {
	char* end = s + size;
	while (s < end) {
 9a6:	c0 17       	cp	r28, r16
 9a8:	d1 07       	cpc	r29, r17
 9aa:	d8 f3       	brcs	.-10     	; 0x9a2 <UART0_send_bytes+0x12>
		UART0_tx(*s);
		s++;
	}
 9ac:	df 91       	pop	r29
 9ae:	cf 91       	pop	r28
 9b0:	1f 91       	pop	r17
 9b2:	0f 91       	pop	r16
 9b4:	08 95       	ret

000009b6 <memcpy>:
 9b6:	fb 01       	movw	r30, r22
 9b8:	dc 01       	movw	r26, r24
 9ba:	02 c0       	rjmp	.+4      	; 0x9c0 <memcpy+0xa>
 9bc:	01 90       	ld	r0, Z+
 9be:	0d 92       	st	X+, r0
 9c0:	41 50       	subi	r20, 0x01	; 1
 9c2:	50 40       	sbci	r21, 0x00	; 0
 9c4:	d8 f7       	brcc	.-10     	; 0x9bc <memcpy+0x6>
 9c6:	08 95       	ret

000009c8 <_exit>:
 9c8:	f8 94       	cli

000009ca <__stop_program>:
 9ca:	ff cf       	rjmp	.-2      	; 0x9ca <__stop_program>
